target datalayout = "e-m:e-p270:32:32-p271:32:32-p272:64:64-i64:64-i128:128-f80:128-n8:16:32:64-S128"
target triple = "x86_64-unknown-linux-gnu"

%struct.QEMUTimerListGroup = type { [4 x ptr] }

@use_icount = external global i32, align 4
@main_loop_tlg = dso_local global %struct.QEMUTimerListGroup zeroinitializer, align 8

; Function Attrs: nounwind sspstrong uwtable
define dso_local zeroext i1 @qemu_clock_run_timers(i32 noundef %type) #0 {
entry:
  %type.addr = alloca i32, align 4
  store i32 %type, ptr %type.addr, align 4
  %0 = load i32, ptr %type.addr, align 4
  %idxprom = zext i32 %0 to i64
  %arrayidx = getelementptr [4 x ptr], ptr @main_loop_tlg, i64 0, i64 %idxprom
  %1 = load ptr, ptr %arrayidx, align 8
  %call = call zeroext i1 @timerlist_run_timers(ptr noundef %1)
  ret i1 %call
}

; Function Attrs: nounwind sspstrong uwtable
define dso_local zeroext i1 @qemu_clock_use_for_deadline(i32 noundef %type) #0 {
entry:
  %type.addr = alloca i32, align 4
  store i32 %type, ptr %type.addr, align 4
  %0 = load i32, ptr @use_icount, align 4
  %tobool = icmp ne i32 %0, 0
  br i1 %tobool, label %land.rhs, label %land.end

land.rhs:                                         ; preds = %entry
  %1 = load i32, ptr %type.addr, align 4
  %cmp = icmp eq i32 %1, 1
  br label %land.end

land.end:                                         ; preds = %land.rhs, %entry
  %2 = phi i1 [ false, %entry ], [ %cmp, %land.rhs ]
  %lnot = xor i1 %2, true
  ret i1 %lnot
}

; Function Attrs: nounwind sspstrong uwtable
define dso_local zeroext i1 @qemu_clock_run_all_timers() #0 {
entry:
  %progress = alloca i8, align 1
  %type = alloca i32, align 4
  store i8 0, ptr %progress, align 1
  store i32 0, ptr %type, align 4
  br label %for.cond

for.cond:                                         ; preds = %for.inc, %entry
  %0 = load i32, ptr %type, align 4
  %cmp = icmp ult i32 %0, 4
  br i1 %cmp, label %for.body, label %for.end

for.body:                                         ; preds = %for.cond
  %1 = load i32, ptr %type, align 4
  %call = call zeroext i1 @qemu_clock_use_for_deadline(i32 noundef %1)
  br i1 %call, label %if.then, label %if.end

if.then:                                          ; preds = %for.body
  %2 = load i32, ptr %type, align 4
  %call1 = call zeroext i1 @qemu_clock_run_timers(i32 noundef %2)
  %conv = zext i1 %call1 to i32
  %3 = load i8, ptr %progress, align 1
  %tobool = trunc i8 %3 to i1
  %conv2 = zext i1 %tobool to i32
  %or = or i32 %conv2, %conv
  %tobool3 = icmp ne i32 %or, 0
  %frombool = zext i1 %tobool3 to i8
  store i8 %frombool, ptr %progress, align 1
  br label %if.end

if.end:                                           ; preds = %if.then, %for.body
  br label %for.inc

for.inc:                                          ; preds = %if.end
  %4 = load i32, ptr %type, align 4
  %inc = add i32 %4, 1
  store i32 %inc, ptr %type, align 4
  br label %for.cond, !llvm.loop !19

for.end:                                          ; preds = %for.cond
  %5 = load i8, ptr %progress, align 1
  %tobool4 = trunc i8 %5 to i1
  ret i1 %tobool4
}