; Function Attrs: nounwind sspstrong uwtable
define dso_local zeroext i1 @qemu_clock_run_all_timers() local_unnamed_addr #0 {
entry:
  %.pre7 = load i32, ptr @use_icount, align 4
  br label %for.body

for.body:                                         ; preds = %entry, %for.inc
  %0 = phi i32 [ %.pre7, %entry ], [ %3, %for.inc ]
  %indvars.iv = phi i64 [ 0, %entry ], [ %indvars.iv.next, %for.inc ]
  %progress.05 = phi i1 [ false, %entry ], [ %progress.1, %for.inc ]
  %tobool.i = icmp eq i32 %0, 0
  %cmp.i = icmp ne i64 %indvars.iv, 1
  %.not.i = or i1 %cmp.i, %tobool.i
  br i1 %.not.i, label %if.then, label %for.inc

if.then:                                          ; preds = %for.body
  %arrayidx.i = getelementptr [4 x ptr], ptr @main_loop_tlg, i64 0, i64 %indvars.iv
  %1 = load ptr, ptr %arrayidx.i, align 8
  %call.i = tail call noundef zeroext i1 @timerlist_run_timers(ptr noundef %1)
  %2 = or i1 %progress.05, %call.i
  %.pre = load i32, ptr @use_icount, align 4
  br label %for.inc

for.inc:                                          ; preds = %for.body, %if.then
  %3 = phi i32 [ %.pre, %if.then ], [ %0, %for.body ]
  %progress.1 = phi i1 [ %2, %if.then ], [ %progress.05, %for.body ]
  %indvars.iv.next = add nuw nsw i64 %indvars.iv, 1
  %exitcond.not = icmp eq i64 %indvars.iv.next, 4
  br i1 %exitcond.not, label %for.end, label %for.body, !llvm.loop !16

for.end:                                          ; preds = %for.inc
  ret i1 %progress.1
}